target datalayout = "e-m:e-p270:32:32-p271:32:32-p272:64:64-i64:64-i128:128-f80:128-n8:16:32:64-S128"
target triple = "x86_64-pc-linux-gnu"

%struct.AVRational = type { i32, i32 }
%struct.AVFormatContext = type { ptr, ptr, ptr, ptr, ptr, i32, i32, ptr, i32, ptr, i32, ptr, ptr, i64, i64, i64, i32, i32, i32, i64, i64, ptr, i32, i32, ptr, i32, i32, i32, i32, ptr, i64, i32, i32, %struct.AVIOInterruptCB, i32, i32, i32, i32, i64, i32, i32, i32, i32, i32, i32, i32, i32, i32, i32, i32, i32, i64, i32, i32, i32, i32, i32, ptr, ptr, ptr, ptr, i32, ptr, ptr, ptr, ptr, i32, ptr, ptr, i64, ptr, ptr, ptr, i64 }
%struct.AVIOInterruptCB = type { ptr, ptr }
%struct.WAVDemuxContext = type { ptr, i64, i32, ptr, i64, i32, i32, i32, i32, i32, i32, i32, i32, i32, i32, i32, i32 }
%struct.AVStream = type { ptr, i32, i32, ptr, ptr, %struct.AVRational, i64, i64, i64, i32, i32, %struct.AVRational, ptr, %struct.AVRational, %struct.AVPacket, i32, %struct.AVRational, i32 }
%struct.AVPacket = type { ptr, i64, i64, ptr, i32, i32, i32, ptr, i32, i64, i64, ptr, ptr, %struct.AVRational }
%struct.AVCodecParameters = type { i32, i32, i32, ptr, i32, ptr, i32, i32, i64, i32, i32, i32, i32, i32, i32, %struct.AVRational, %struct.AVRational, i32, i32, i32, i32, i32, i32, i32, %struct.AVChannelLayout, i32, i32, i32, i32, i32, i32 }
%struct.AVChannelLayout = type { i32, i32, %union.anon.0, ptr }
%union.anon.0 = type { i64 }

; Function Attrs: nounwind uwtable
define internal i32 @wav_read_seek(ptr noundef %0, i32 noundef %1, i64 noundef %2, i32 noundef %3) #0 {
  %5 = alloca i32, align 4
  %6 = alloca ptr, align 8
  %7 = alloca i32, align 4
  %8 = alloca i64, align 8
  %9 = alloca i32, align 4
  %10 = alloca ptr, align 8
  %11 = alloca ptr, align 8
  %12 = alloca ptr, align 8
  %13 = alloca i32, align 4
  %14 = alloca i64, align 8
  store ptr %0, ptr %6, align 8, !tbaa !14
  store i32 %1, ptr %7, align 4, !tbaa !18
  store i64 %2, ptr %8, align 8, !tbaa !16
  store i32 %3, ptr %9, align 4, !tbaa !18
  call void @llvm.lifetime.start.p0(i64 8, ptr %10) #12
  %15 = load ptr, ptr %6, align 8, !tbaa !14
  %16 = getelementptr inbounds nuw %struct.AVFormatContext, ptr %15, i32 0, i32 3
  %17 = load ptr, ptr %16, align 8, !tbaa !36
  store ptr %17, ptr %10, align 8, !tbaa !37
  call void @llvm.lifetime.start.p0(i64 8, ptr %11) #12
  %18 = load ptr, ptr %6, align 8, !tbaa !14
  %19 = getelementptr inbounds nuw %struct.AVFormatContext, ptr %18, i32 0, i32 7
  %20 = load ptr, ptr %19, align 8, !tbaa !89
  %21 = getelementptr inbounds ptr, ptr %20, i64 0
  %22 = load ptr, ptr %21, align 8, !tbaa !34
  store ptr %22, ptr %11, align 8, !tbaa !34
  call void @llvm.lifetime.start.p0(i64 8, ptr %12) #12
  %23 = load ptr, ptr %10, align 8, !tbaa !37
  %24 = getelementptr inbounds nuw %struct.WAVDemuxContext, ptr %23, i32 0, i32 3
  %25 = load ptr, ptr %24, align 8, !tbaa !47
  store ptr %25, ptr %12, align 8, !tbaa !34
  %26 = load ptr, ptr %10, align 8, !tbaa !37
  %27 = getelementptr inbounds nuw %struct.WAVDemuxContext, ptr %26, i32 0, i32 9
  store i32 0, ptr %27, align 8, !tbaa !104
  %28 = load ptr, ptr %10, align 8, !tbaa !37
  %29 = getelementptr inbounds nuw %struct.WAVDemuxContext, ptr %28, i32 0, i32 10
  store i32 0, ptr %29, align 4, !tbaa !103
  %30 = load i32, ptr %7, align 4, !tbaa !18
  %31 = icmp ne i32 %30, 0
  br i1 %31, label %32, label %42

32:                                               ; preds = %4
  %33 = load ptr, ptr %12, align 8, !tbaa !34
  %34 = icmp ne ptr %33, null
  br i1 %34, label %35, label %41

35:                                               ; preds = %32
  %36 = load i32, ptr %7, align 4, !tbaa !18
  %37 = load ptr, ptr %12, align 8, !tbaa !34
  %38 = getelementptr inbounds nuw %struct.AVStream, ptr %37, i32 0, i32 1
  %39 = load i32, ptr %38, align 8, !tbaa !109
  %40 = icmp ne i32 %36, %39
  br i1 %40, label %41, label %42

41:                                               ; preds = %35, %32
  store i32 -22, ptr %5, align 4
  store i32 1, ptr %13, align 4
  br label %98

42:                                               ; preds = %35, %4
  %43 = load ptr, ptr %10, align 8, !tbaa !37
  %44 = getelementptr inbounds nuw %struct.WAVDemuxContext, ptr %43, i32 0, i32 4
  %45 = load i64, ptr %44, align 8, !tbaa !41
  %46 = icmp sgt i64 %45, 0
  br i1 %46, label %47, label %85

47:                                               ; preds = %42
  call void @llvm.lifetime.start.p0(i64 8, ptr %14) #12
  %48 = load i64, ptr %8, align 8, !tbaa !16
  store i64 %48, ptr %14, align 8, !tbaa !16
  %49 = load i32, ptr %7, align 4, !tbaa !18
  %50 = icmp eq i32 %49, 0
  br i1 %50, label %51, label %60

51:                                               ; preds = %47
  %52 = load i64, ptr %8, align 8, !tbaa !16
  %53 = load ptr, ptr %11, align 8, !tbaa !34
  %54 = getelementptr inbounds nuw %struct.AVStream, ptr %53, i32 0, i32 5
  %55 = load ptr, ptr %12, align 8, !tbaa !34
  %56 = getelementptr inbounds nuw %struct.AVStream, ptr %55, i32 0, i32 5
  %57 = load i64, ptr %54, align 8
  %58 = load i64, ptr %56, align 8
  %59 = call i64 @av_rescale_q(i64 noundef %52, i64 %57, i64 %58) #13
  store i64 %59, ptr %14, align 8, !tbaa !16
  br label %69

60:                                               ; preds = %47
  %61 = load i64, ptr %14, align 8, !tbaa !16
  %62 = load ptr, ptr %12, align 8, !tbaa !34
  %63 = getelementptr inbounds nuw %struct.AVStream, ptr %62, i32 0, i32 5
  %64 = load ptr, ptr %11, align 8, !tbaa !34
  %65 = getelementptr inbounds nuw %struct.AVStream, ptr %64, i32 0, i32 5
  %66 = load i64, ptr %63, align 8
  %67 = load i64, ptr %65, align 8
  %68 = call i64 @av_rescale_q(i64 noundef %61, i64 %66, i64 %67) #13
  store i64 %68, ptr %8, align 8, !tbaa !16
  br label %69

69:                                               ; preds = %60, %51
  %70 = load ptr, ptr %10, align 8, !tbaa !37
  %71 = getelementptr inbounds nuw %struct.WAVDemuxContext, ptr %70, i32 0, i32 6
  %72 = load i32, ptr %71, align 4, !tbaa !64
  %73 = icmp sgt i32 %72, 0
  br i1 %73, label %74, label %84

74:                                               ; preds = %69
  %75 = load i64, ptr %14, align 8, !tbaa !16
  %76 = load ptr, ptr %10, align 8, !tbaa !37
  %77 = getelementptr inbounds nuw %struct.WAVDemuxContext, ptr %76, i32 0, i32 6
  %78 = load i32, ptr %77, align 4, !tbaa !64
  %79 = sext i32 %78 to i64
  %80 = sdiv i64 %75, %79
  %81 = trunc i64 %80 to i32
  %82 = load ptr, ptr %10, align 8, !tbaa !37
  %83 = getelementptr inbounds nuw %struct.WAVDemuxContext, ptr %82, i32 0, i32 7
  store i32 %81, ptr %83, align 8, !tbaa !105
  br label %84

84:                                               ; preds = %74, %69
  call void @llvm.lifetime.end.p0(i64 8, ptr %14) #12
  br label %85

85:                                               ; preds = %84, %42
  %86 = load ptr, ptr %11, align 8, !tbaa !34
  %87 = getelementptr inbounds nuw %struct.AVStream, ptr %86, i32 0, i32 3
  %88 = load ptr, ptr %87, align 8, !tbaa !55
  %89 = getelementptr inbounds nuw %struct.AVCodecParameters, ptr %88, i32 0, i32 1
  %90 = load i32, ptr %89, align 4, !tbaa !59
  switch i32 %90, label %92 [
    i32 86016, label %91
    i32 86017, label %91
    i32 86019, label %91
    i32 86020, label %91
    i32 86096, label %91
  ]

91:                                               ; preds = %85, %85, %85, %85, %85
  store i32 -1, ptr %5, align 4
  store i32 1, ptr %13, align 4
  br label %98

92:                                               ; preds = %85
  br label %93

93:                                               ; preds = %92
  %94 = load ptr, ptr %6, align 8, !tbaa !14
  %95 = load i64, ptr %8, align 8, !tbaa !16
  %96 = load i32, ptr %9, align 4, !tbaa !18
  %97 = call i32 @ff_pcm_read_seek(ptr noundef %94, i32 noundef 0, i64 noundef %95, i32 noundef %96)
  store i32 %97, ptr %5, align 4
  store i32 1, ptr %13, align 4
  br label %98

98:                                               ; preds = %93, %91, %41
  call void @llvm.lifetime.end.p0(i64 8, ptr %12) #12
  call void @llvm.lifetime.end.p0(i64 8, ptr %11) #12
  call void @llvm.lifetime.end.p0(i64 8, ptr %10) #12
  %99 = load i32, ptr %5, align 4
  ret i32 %99
}