; Function Attrs: nounwind uwtable
define internal i32 @wav_read_seek(ptr noundef %0, i32 noundef %1, i64 noundef %2, i32 noundef %3) #1 {
  %5 = getelementptr inbounds nuw i8, ptr %0, i64 24
  %6 = load ptr, ptr %5, align 8, !tbaa !27
  %7 = getelementptr inbounds nuw i8, ptr %0, i64 48
  %8 = load ptr, ptr %7, align 8, !tbaa !93
  %9 = load ptr, ptr %8, align 8, !tbaa !94
  %10 = getelementptr inbounds nuw i8, ptr %6, i64 24
  %11 = load ptr, ptr %10, align 8, !tbaa !71
  %12 = getelementptr inbounds nuw i8, ptr %6, i64 56
  store i32 0, ptr %12, align 8, !tbaa !98
  %13 = getelementptr inbounds nuw i8, ptr %6, i64 60
  store i32 0, ptr %13, align 4, !tbaa !97
  %.not = icmp eq i32 %1, 0
  br i1 %.not, label %18, label %14

14:                                               ; preds = %4
  %.not31 = icmp eq ptr %11, null
  br i1 %.not31, label %53, label %15

15:                                               ; preds = %14
  %16 = getelementptr inbounds nuw i8, ptr %11, i64 8
  %17 = load i32, ptr %16, align 8, !tbaa !104
  %.not32 = icmp eq i32 %1, %17
  br i1 %.not32, label %.thread, label %53

18:                                               ; preds = %4
  %19 = getelementptr inbounds nuw i8, ptr %6, i64 32
  %20 = load i64, ptr %19, align 8, !tbaa !31
  %21 = icmp sgt i64 %20, 0
  br i1 %21, label %25, label %46

.thread:                                          ; preds = %15
  %22 = getelementptr inbounds nuw i8, ptr %6, i64 32
  %23 = load i64, ptr %22, align 8, !tbaa !31
  %24 = icmp sgt i64 %23, 0
  br i1 %24, label %31, label %46

25:                                               ; preds = %18
  %26 = getelementptr inbounds nuw i8, ptr %9, i64 32
  %27 = getelementptr inbounds nuw i8, ptr %11, i64 32
  %28 = load i64, ptr %26, align 8
  %29 = load i64, ptr %27, align 8
  %30 = tail call i64 @av_rescale_q(i64 noundef %2, i64 %28, i64 %29) #11
  br label %37

31:                                               ; preds = %.thread
  %32 = getelementptr inbounds nuw i8, ptr %11, i64 32
  %33 = getelementptr inbounds nuw i8, ptr %9, i64 32
  %34 = load i64, ptr %32, align 8
  %35 = load i64, ptr %33, align 8
  %36 = tail call i64 @av_rescale_q(i64 noundef %2, i64 %34, i64 %35) #11
  br label %37

37:                                               ; preds = %31, %25
  %.1 = phi i64 [ %2, %25 ], [ %36, %31 ]
  %.0 = phi i64 [ %30, %25 ], [ %2, %31 ]
  %38 = getelementptr inbounds nuw i8, ptr %6, i64 44
  %39 = load i32, ptr %38, align 4, !tbaa !76
  %40 = icmp sgt i32 %39, 0
  br i1 %40, label %41, label %46

41:                                               ; preds = %37
  %42 = zext nneg i32 %39 to i64
  %43 = sdiv i64 %.0, %42
  %44 = trunc i64 %43 to i32
  %45 = getelementptr inbounds nuw i8, ptr %6, i64 48
  store i32 %44, ptr %45, align 8, !tbaa !100
  br label %46

46:                                               ; preds = %.thread, %37, %41, %18
  %.027 = phi i64 [ %2, %18 ], [ %.1, %41 ], [ %.1, %37 ], [ %2, %.thread ]
  %47 = getelementptr inbounds nuw i8, ptr %9, i64 16
  %48 = load ptr, ptr %47, align 8, !tbaa !33
  %49 = getelementptr inbounds nuw i8, ptr %48, i64 4
  %50 = load i32, ptr %49, align 4, !tbaa !40
  switch i32 %50, label %51 [
    i32 86016, label %53
    i32 86017, label %53
    i32 86019, label %53
    i32 86020, label %53
    i32 86096, label %53
  ]

51:                                               ; preds = %46
  %52 = tail call i32 @ff_pcm_read_seek(ptr noundef nonnull %0, i32 noundef 0, i64 noundef %.027, i32 noundef %3) #10
  br label %53

53:                                               ; preds = %46, %46, %46, %46, %46, %14, %15, %51
  %.026 = phi i32 [ %52, %51 ], [ -22, %15 ], [ -22, %14 ], [ -1, %46 ], [ -1, %46 ], [ -1, %46 ], [ -1, %46 ], [ -1, %46 ]
  ret i32 %.026
}